target datalayout = "e-m:e-p270:32:32-p271:32:32-p272:64:64-i64:64-i128:128-f80:128-n8:16:32:64-S128"
target triple = "x86_64-pc-linux-gnu"

%struct.FastPathStrongRelationLockData = type { i8, [1024 x i32] }
%struct.LOCKTAG = type { i32, i32, i32, i16, i8, i8 }
%struct.LOCALLOCKTAG = type { %struct.LOCKTAG, i32 }
%struct.LOCALLOCK = type { %struct.LOCALLOCKTAG, i32, ptr, ptr, i64, i32, i32, ptr, i8, i8 }

@FastPathStrongRelationLocks = internal global ptr null, align 8
@.str.5 = private unnamed_addr constant [7 x i8] c"lock.c\00", align 1
@StrongLockInProgress = internal global ptr null, align 8
@__func__.AbortStrongLockAcquire = private unnamed_addr constant [23 x i8] c"AbortStrongLockAcquire\00", align 1

; Function Attrs: inlinehint nounwind uwtable
define internal i32 @tas(ptr noundef %0) #6 {
  %2 = alloca ptr, align 8
  %3 = alloca i8, align 1
  store ptr %0, ptr %2, align 8
  call void @llvm.lifetime.start.p0(i64 1, ptr %3) #9
  store i8 1, ptr %3, align 1
  %4 = load i8, ptr %3, align 1
  %5 = load ptr, ptr %2, align 8
  %6 = call i8 asm sideeffect "\09lock\09\09\09\0A\09xchgb\09$0,$1\09\0A", "=q,=*m,0,*m,~{memory},~{cc},~{dirflag},~{fpsr},~{flags}"(ptr elementtype(i8) %5, i8 %4, ptr elementtype(i8) %5) #9, !srcloc !26
  store i8 %6, ptr %3, align 1
  %7 = load i8, ptr %3, align 1
  %8 = zext i8 %7 to i32
  call void @llvm.lifetime.end.p0(i64 1, ptr %3) #9
  ret i32 %8
}

; Function Attrs: nounwind uwtable
define dso_local void @AbortStrongLockAcquire() #0 {
  %1 = alloca i32, align 4
  %2 = alloca ptr, align 8
  %3 = alloca i32, align 4
  call void @llvm.lifetime.start.p0(i64 4, ptr %1) #9
  call void @llvm.lifetime.start.p0(i64 8, ptr %2) #9
  %4 = load ptr, ptr @StrongLockInProgress, align 8
  store ptr %4, ptr %2, align 8
  %5 = load ptr, ptr %2, align 8
  %6 = icmp eq ptr %5, null
  br i1 %6, label %7, label %8

7:                                                ; preds = %0
  store i32 1, ptr %3, align 4
  br label %37

8:                                                ; preds = %0
  %9 = load ptr, ptr %2, align 8
  %10 = getelementptr inbounds nuw %struct.LOCALLOCK, ptr %9, i32 0, i32 1
  %11 = load i32, ptr %10, align 4
  %12 = urem i32 %11, 1024
  store i32 %12, ptr %1, align 4
  %13 = load ptr, ptr @FastPathStrongRelationLocks, align 8
  %14 = getelementptr inbounds nuw %struct.FastPathStrongRelationLockData, ptr %13, i32 0, i32 0
  %15 = call i32 @tas(ptr noundef %14)
  %16 = icmp ne i32 %15, 0
  br i1 %16, label %17, label %21

17:                                               ; preds = %8
  %18 = load ptr, ptr @FastPathStrongRelationLocks, align 8
  %19 = getelementptr inbounds nuw %struct.FastPathStrongRelationLockData, ptr %18, i32 0, i32 0
  %20 = call i32 @s_lock(ptr noundef %19, ptr noundef @.str.5, i32 noundef 1819, ptr noundef @__func__.AbortStrongLockAcquire)
  br label %22

21:                                               ; preds = %8
  br label %22

22:                                               ; preds = %21, %17
  %23 = load ptr, ptr @FastPathStrongRelationLocks, align 8
  %24 = getelementptr inbounds nuw %struct.FastPathStrongRelationLockData, ptr %23, i32 0, i32 1
  %25 = load i32, ptr %1, align 4
  %26 = zext i32 %25 to i64
  %27 = getelementptr inbounds nuw [1024 x i32], ptr %24, i64 0, i64 %26
  %28 = load volatile i32, ptr %27, align 4
  %29 = add i32 %28, -1
  store volatile i32 %29, ptr %27, align 4
  %30 = load ptr, ptr %2, align 8
  %31 = getelementptr inbounds nuw %struct.LOCALLOCK, ptr %30, i32 0, i32 8
  store i8 0, ptr %31, align 8
  store ptr null, ptr @StrongLockInProgress, align 8
  br label %32

32:                                               ; preds = %22
  call void asm sideeffect "", "~{memory},~{dirflag},~{fpsr},~{flags}"() #9, !srcloc !20
  %33 = load ptr, ptr @FastPathStrongRelationLocks, align 8
  %34 = getelementptr inbounds nuw %struct.FastPathStrongRelationLockData, ptr %33, i32 0, i32 0
  store volatile i8 0, ptr %34, align 4
  br label %35

35:                                               ; preds = %32
  br label %36

36:                                               ; preds = %35
  store i32 0, ptr %3, align 4
  br label %37

37:                                               ; preds = %36, %7
  call void @llvm.lifetime.end.p0(i64 8, ptr %2) #9
  call void @llvm.lifetime.end.p0(i64 4, ptr %1) #9
  %38 = load i32, ptr %3, align 4
  switch i32 %38, label %40 [
    i32 0, label %39
    i32 1, label %39
  ]

39:                                               ; preds = %37, %37
  ret void

40:                                               ; preds = %37
  unreachable
}