; Function Attrs: nounwind uwtable
define dso_local void @AbortStrongLockAcquire() local_unnamed_addr #0 {
  %1 = load ptr, ptr @StrongLockInProgress, align 8
  %2 = icmp eq ptr %1, null
  br i1 %2, label %21, label %3

3:                                                ; preds = %0
  %4 = getelementptr inbounds nuw i8, ptr %1, i64 20
  %5 = load i32, ptr %4, align 4
  %6 = and i32 %5, 1023
  %7 = load ptr, ptr @FastPathStrongRelationLocks, align 8
  %8 = tail call i8 asm sideeffect "\09lock\09\09\09\0A\09xchgb\09$0,$1\09\0A", "=q,=*m,0,*m,~{memory},~{cc},~{dirflag},~{fpsr},~{flags}"(ptr elementtype(i8) %7, i8 1, ptr elementtype(i8) %7) #17, !srcloc !10
  %.not = icmp eq i8 %8, 0
  br i1 %.not, label %12, label %9

9:                                                ; preds = %3
  %10 = load ptr, ptr @FastPathStrongRelationLocks, align 8
  %11 = tail call i32 @s_lock(ptr noundef %10, ptr noundef nonnull @.str.5, i32 noundef 1819, ptr noundef nonnull @__func__.AbortStrongLockAcquire) #17
  br label %12

12:                                               ; preds = %3, %9
  %13 = load ptr, ptr @FastPathStrongRelationLocks, align 8
  %14 = getelementptr inbounds nuw i8, ptr %13, i64 4
  %15 = zext nneg i32 %6 to i64
  %16 = getelementptr inbounds nuw [1024 x i32], ptr %14, i64 0, i64 %15
  %17 = load volatile i32, ptr %16, align 4
  %18 = add i32 %17, -1
  store volatile i32 %18, ptr %16, align 4
  %19 = getelementptr inbounds nuw i8, ptr %1, i64 64
  store i8 0, ptr %19, align 8
  store ptr null, ptr @StrongLockInProgress, align 8
  tail call void asm sideeffect "", "~{memory},~{dirflag},~{fpsr},~{flags}"() #17, !srcloc !17
  %20 = load ptr, ptr @FastPathStrongRelationLocks, align 8
  store volatile i8 0, ptr %20, align 4
  br label %21

21:                                               ; preds = %0, %12
  ret void
}